; Function Attrs: nofree norecurse nosync nounwind memory(argmem: readwrite) uwtable
define internal void @PredictorAdd1_C(ptr noundef readonly captures(none) %0, ptr readnone captures(none) %1, i32 noundef %2, ptr noalias noundef captures(none) %3) #2 {
  %5 = icmp sgt i32 %2, 0
  br i1 %5, label %.lr.ph.preheader, label %._crit_edge

.lr.ph.preheader:                                 ; preds = %4
  %6 = getelementptr inbounds i8, ptr %3, i64 -4
  %7 = load i32, ptr %6, align 4, !tbaa !3
  %wide.trip.count = zext nneg i32 %2 to i64
  br label %.lr.ph

.lr.ph:                                           ; preds = %.lr.ph.preheader, %.lr.ph
  %indvars.iv = phi i64 [ 0, %.lr.ph.preheader ], [ %indvars.iv.next, %.lr.ph ]
  %.010 = phi i32 [ %7, %.lr.ph.preheader ], [ %18, %.lr.ph ]
  %8 = getelementptr inbounds nuw i32, ptr %0, i64 %indvars.iv
  %9 = load i32, ptr %8, align 4, !tbaa !3
  %10 = and i32 %9, -16711936
  %11 = and i32 %.010, -16711936
  %12 = add i32 %10, %11
  %13 = and i32 %9, 16711935
  %14 = and i32 %.010, 16711935
  %15 = add nuw nsw i32 %13, %14
  %16 = and i32 %12, -16711936
  %17 = and i32 %15, 16711935
  %18 = or disjoint i32 %16, %17
  %19 = getelementptr inbounds nuw i32, ptr %3, i64 %indvars.iv
  store i32 %18, ptr %19, align 4, !tbaa !3
  %indvars.iv.next = add nuw nsw i64 %indvars.iv, 1
  %exitcond.not = icmp eq i64 %indvars.iv.next, %wide.trip.count
  br i1 %exitcond.not, label %._crit_edge, label %.lr.ph, !llvm.loop !31

._crit_edge:                                      ; preds = %.lr.ph, %4
  ret void
}